target datalayout = "e-m:e-p270:32:32-p271:32:32-p272:64:64-i64:64-i128:128-f80:128-n8:16:32:64-S128"
target triple = "x86_64-pc-linux-gnu"

@.str.1 = private unnamed_addr constant [10 x i8] c"need more\00", align 1
@.str.2 = private unnamed_addr constant [9 x i8] c"mismatch\00", align 1
@.str.3 = private unnamed_addr constant [8 x i8] c"invalid\00", align 1
@.str.4 = private unnamed_addr constant [13 x i8] c"end of range\00", align 1
@.str.5 = private unnamed_addr constant [9 x i8] c"leftover\00", align 1
@.str.6 = private unnamed_addr constant [13 x i8] c"out of range\00", align 1

; Function Attrs: mustprogress nounwind uwtable
define noundef ptr @_ZNK5boost4urls7grammar6detail14error_cat_type7messageEiPcm(ptr noundef nonnull align 8 dereferenceable(52) %0, i32 noundef %1, ptr noundef %2, i64 noundef %3) unnamed_addr #2 align 2 {
  %5 = alloca ptr, align 8
  %6 = alloca ptr, align 8
  %7 = alloca i32, align 4
  %8 = alloca ptr, align 8
  %9 = alloca i64, align 8
  store ptr %0, ptr %6, align 8, !tbaa !3
  store i32 %1, ptr %7, align 4, !tbaa !7
  store ptr %2, ptr %8, align 8, !tbaa !3
  store i64 %3, ptr %9, align 8, !tbaa !14
  %10 = load i32, ptr %7, align 4, !tbaa !7
  switch i32 %10, label %11 [
    i32 1, label %12
    i32 2, label %13
    i32 5, label %14
    i32 3, label %15
    i32 4, label %16
    i32 6, label %17
  ]

11:                                               ; preds = %4
  br label %12

12:                                               ; preds = %4, %11
  store ptr @.str.1, ptr %5, align 8
  br label %18

13:                                               ; preds = %4
  store ptr @.str.2, ptr %5, align 8
  br label %18

14:                                               ; preds = %4
  store ptr @.str.3, ptr %5, align 8
  br label %18

15:                                               ; preds = %4
  store ptr @.str.4, ptr %5, align 8
  br label %18

16:                                               ; preds = %4
  store ptr @.str.5, ptr %5, align 8
  br label %18

17:                                               ; preds = %4
  store ptr @.str.6, ptr %5, align 8
  br label %18

18:                                               ; preds = %17, %16, %15, %14, %13, %12
  %19 = load ptr, ptr %5, align 8
  ret ptr %19
}